; Function Attrs: nounwind sspstrong uwtable
define internal i64 @strscan_match(ptr noundef %0, i64 %1, ptr noundef %2, ptr noundef readonly captures(none) %3) #0 {
  %5 = getelementptr inbounds nuw i8, ptr %3, i64 64
  %6 = load i8, ptr %5, align 8, !tbaa !27, !range !41, !noundef !42
  %7 = trunc nuw i8 %6 to i1
  %8 = getelementptr inbounds nuw i8, ptr %3, i64 8
  %9 = load i64, ptr %8, align 8, !tbaa !23
  %10 = inttoptr i64 %9 to ptr
  %11 = load i64, ptr %10, align 8, !tbaa !34, !noalias !42
  %12 = and i64 %11, 8192
  %.not.i.i.i = icmp eq i64 %12, 0
  %13 = getelementptr inbounds nuw i8, ptr %10, i64 24
  br i1 %7, label %14, label %15

14:                                               ; preds = %4
  br i1 %.not.i.i.i, label %RSTRING_PTR.exit13, label %match_target.exit.thread16

match_target.exit.thread16:                       ; preds = %14
  %.sroa.2.0.copyload.i.i = load ptr, ptr %13, align 8
  br label %RSTRING_PTR.exit13

15:                                               ; preds = %4
  br i1 %.not.i.i.i, label %match_target.exit.thread19, label %match_target.exit

match_target.exit.thread19:                       ; preds = %15
  %16 = getelementptr inbounds nuw i8, ptr %3, i64 24
  %17 = load i64, ptr %16, align 8, !tbaa !29
  %18 = getelementptr inbounds i8, ptr %13, i64 %17
  br label %RSTRING_PTR.exit13

match_target.exit:                                ; preds = %15
  %.sroa.2.0.copyload.i6.i = load ptr, ptr %13, align 8
  %19 = getelementptr inbounds nuw i8, ptr %3, i64 24
  %20 = load i64, ptr %19, align 8, !tbaa !29
  %21 = getelementptr inbounds i8, ptr %.sroa.2.0.copyload.i6.i, i64 %20
  br label %RSTRING_PTR.exit13

RSTRING_PTR.exit13:                               ; preds = %match_target.exit.thread16, %match_target.exit, %14, %match_target.exit.thread19
  %.sink = phi ptr [ %13, %match_target.exit.thread19 ], [ %13, %14 ], [ %.sroa.2.0.copyload.i.i, %match_target.exit.thread16 ], [ %.sroa.2.0.copyload.i6.i, %match_target.exit ]
  %.0.i1523 = phi ptr [ %18, %match_target.exit.thread19 ], [ %13, %14 ], [ %.sroa.2.0.copyload.i.i, %match_target.exit.thread16 ], [ %21, %match_target.exit ]
  %22 = getelementptr inbounds nuw i8, ptr %10, i64 16
  %23 = load i64, ptr %22, align 8, !tbaa !32
  %24 = getelementptr inbounds i8, ptr %.sink, i64 %23
  %25 = getelementptr inbounds nuw i8, ptr %3, i64 24
  %26 = load i64, ptr %25, align 8, !tbaa !29
  %27 = getelementptr inbounds i8, ptr %.sink, i64 %26
  %28 = tail call i64 @onig_match(ptr noundef %0, ptr noundef %.0.i1523, ptr noundef %24, ptr noundef %27, ptr noundef %2, i32 noundef 0) #12
  ret i64 %28
}